; Function Attrs: null_pointer_is_valid sspstrong uwtable
define hidden void @nvme_publish_link(ptr noundef %0, ptr noundef %1, i32 noundef %2, i32 noundef %3, i1 noundef zeroext %4) local_unnamed_addr #0 {
  %.not = icmp ne i32 %3, 0
  %brmerge = or i1 %.not, %4
  br i1 %brmerge, label %6, label %proto_item_set_generated.exit

6:                                                ; preds = %5
  %7 = tail call ptr @proto_tree_add_uint(ptr noundef %0, i32 noundef %2, ptr noundef %1, i32 noundef 0, i32 noundef 0, i32 noundef %3)
  %.not.i = icmp eq ptr %7, null
  br i1 %.not.i, label %proto_item_set_generated.exit, label %8

8:                                                ; preds = %6
  %9 = getelementptr inbounds nuw i8, ptr %7, i64 40
  %10 = load ptr, ptr %9, align 8
  %.not5.i = icmp eq ptr %10, null
  br i1 %.not5.i, label %proto_item_set_generated.exit, label %11

11:                                               ; preds = %8
  %12 = getelementptr inbounds nuw i8, ptr %10, i64 28
  %13 = load i32, ptr %12, align 4
  %14 = or i32 %13, 2
  store i32 %14, ptr %12, align 4
  br label %proto_item_set_generated.exit

proto_item_set_generated.exit:                    ; preds = %11, %8, %6, %5
  ret void
}